Certificate:
    Data:
        Version: 3 (0x2)
        Serial Number: 6 (0x6)
    Signature Algorithm: sha256WithRSAEncryption
        Issuer: C=UK, ST=Scotland, L=Glasgow, O=DevOps LTD, OU=DevOps, CN=DevOpsCA
        Validity
            Not Before: Nov  8 10:02:50 2017 GMT
            Not After : Nov  6 10:02:50 2027 GMT
        Subject: C=GB, ST=Cambridgeshire, O=DevOps LTD, CN=wintventory.wintego/subjectAltName=wintventory.wintego
        Subject Public Key Info:
            Public Key Algorithm: rsaEncryption
                Public-Key: (4096 bit)
                Modulus:
                    00:c5:e1:aa:3f:7d:ed:78:a7:25:0f:6d:bd:74:93:
                    61:1f:84:24:6d:93:6b:ac:95:b1:31:6d:f2:1a:73:
                    ee:b1:91:44:89:17:ac:e7:ca:25:1b:44:31:0e:76:
                    3e:52:6e:0b:0d:91:ac:79:df:59:a5:80:fc:0b:ec:
                    48:43:76:db:bb:80:77:dd:70:6d:ce:7e:f3:ab:3a:
                    26:e6:27:6b:85:36:37:ac:30:7b:85:d6:f9:e9:af:
                    09:70:c1:f8:20:b6:26:01:26:3b:ed:c7:ba:16:73:
                    78:da:55:5f:69:32:10:3e:b8:74:49:01:0f:51:5d:
                    21:5e:46:b4:de:67:a4:07:e7:80:a7:da:ef:41:61:
                    c5:b6:f4:89:1f:d8:31:89:23:26:1f:23:ef:7c:84:
                    2f:89:b3:71:89:ac:14:3e:9c:3a:c5:87:e8:40:cc:
                    6b:4e:13:73:ea:ed:d3:11:f7:8f:26:ff:8f:d1:f2:
                    23:01:3c:79:8f:46:8d:d5:a6:04:50:30:d3:35:2c:
                    8f:cc:c2:17:3a:1e:ae:cf:95:69:5b:7e:ba:64:be:
                    da:b5:76:14:05:b7:26:9b:60:c7:be:1f:dd:57:37:
                    1c:e0:3c:bc:6d:d1:da:a3:f0:c7:b7:50:b1:0b:96:
                    56:1b:4c:78:82:a0:cb:e6:d8:a3:db:18:8e:2b:49:
                    19:44:f4:e5:c8:2f:54:77:f9:da:45:31:6a:c9:05:
                    a5:6d:89:cc:9e:81:47:d9:08:c4:9a:84:d0:b0:6a:
                    19:41:d0:59:df:60:c1:bb:e0:df:03:9a:c1:cc:de:
                    5e:66:c1:49:dd:f0:88:75:b6:12:4b:59:00:ce:ac:
                    ac:f6:02:77:f5:4a:cc:d8:71:cf:a4:8a:b3:6a:58:
                    6f:07:14:fb:cc:8d:7d:69:06:ca:5a:47:92:13:ba:
                    b0:b3:44:40:11:1a:4f:60:9c:91:ac:a2:25:1e:0b:
                    6f:de:50:ac:1f:ae:e4:54:a8:ca:4e:c5:33:c2:6f:
                    3d:49:4c:ca:ea:9a:1a:b5:da:29:1d:a0:68:0e:42:
                    78:d2:5a:5b:89:df:42:04:3e:fb:cf:fe:31:5f:14:
                    d2:de:45:ac:32:5b:08:7e:01:09:0a:e4:c1:be:f5:
                    5c:09:86:42:ab:de:3a:45:fc:4c:bb:e1:ce:2b:78:
                    3f:a9:2c:ce:79:85:ca:a0:0c:58:57:d7:bb:bc:16:
                    f8:8a:68:ad:4d:8b:8c:1a:53:c6:06:52:b0:e4:77:
                    7f:08:a7:9b:e6:5a:93:5f:be:92:ba:70:44:c5:a2:
                    bc:75:ce:59:bb:aa:af:3b:20:b9:ea:b0:fd:dd:0f:
                    f4:7f:fa:ba:02:6a:29:0a:48:ae:2d:65:65:04:33:
                    c9:f3:89
                Exponent: 65537 (0x10001)
        X509v3 extensions:
            X509v3 Authority Key Identifier: 
                keyid:AB:61:BF:E5:A3:FC:02:53:63:82:47:46:19:46:9E:26:C9:64:F2:54

            X509v3 Basic Constraints: 
                CA:FALSE
            X509v3 Key Usage: 
                Digital Signature, Non Repudiation, Key Encipherment, Data Encipherment
            X509v3 Subject Alternative Name: 
                DNS:mmost
            X509v3 Subject Key Identifier: 
                51:5A:6A:40:53:04:A0:D1:C9:D9:16:FA:5A:D6:59:D4:75:F7:D5:50
            Netscape Cert Type: 
                SSL Client, SSL Server, S/MIME, Object Signing
    Signature Algorithm: sha256WithRSAEncryption
         a8:73:e9:90:78:fc:ca:60:48:13:78:bb:0e:20:26:21:5c:14:
         ea:73:57:c7:70:2f:d3:f6:95:71:13:ea:37:f3:95:77:52:c4:
         76:ef:c2:94:c5:c5:f1:7b:8e:d3:1d:ed:f0:3d:c9:51:fa:a4:
         51:01:81:96:5c:55:cb:04:9b:41:47:95:e0:f5:bb:df:bc:26:
         37:5c:ee:90:d6:c5:6b:44:b9:12:1b:b5:cf:cf:16:7d:7e:da:
         2e:cb:97:8d:3f:71:8a:0a:98:d9:06:ee:a7:6f:c2:71:2a:25:
         ab:e4:32:be:17:f0:cc:03:52:c1:08:79:42:ea:66:11:04:85:
         c4:34:8d:a1:67:a3:20:57:82:e4:e0:5f:82:78:0c:84:44:27:
         a4:7a:9f:3c:42:f3:2e:d2:c2:0a:6b:a6:7d:33:76:a2:b0:1d:
         fe:a8:ab:4f:6a:d0:34:50:b2:da:04:92:af:6c:9e:79:ca:11:
         77:c2:30:ee:e4:95:7b:58:fe:76:2b:98:1b:16:ba:01:39:d2:
         a2:83:b2:06:06:ec:40:67:72:5f:0f:2f:64:10:16:aa:f2:aa:
         8a:7c:d2:dd:77:90:a3:e6:94:6b:ae:21:32:d9:dc:5e:ab:3f:
         07:f9:9a:a4:05:68:ed:d9:53:f2:c4:d2:18:23:0c:22:a6:1e:
         b9:66:51:11
-----BEGIN CERTIFICATE-----
MIIE3DCCA8SgAwIBAgIBBjANBgkqhkiG9w0BAQsFADBrMQswCQYDVQQGEwJVSzER
MA8GA1UECAwIU2NvdGxhbmQxEDAOBgNVBAcMB0dsYXNnb3cxEzARBgNVBAoMCkRl
dk9wcyBMVEQxDzANBgNVBAsMBkRldk9wczERMA8GA1UEAwwIRGV2T3BzQ0EwHhcN
MTcxMTA4MTAwMjUwWhcNMjcxMTA2MTAwMjUwWjB3MQswCQYDVQQGEwJHQjEXMBUG
A1UECAwOQ2FtYnJpZGdlc2hpcmUxEzARBgNVBAoMCkRldk9wcyBMVEQxHDAaBgNV
BAMME3dpbnR2ZW50b3J5LndpbnRlZ28xHDAaBgNVHREME3dpbnR2ZW50b3J5Lndp
bnRlZ28wggIiMA0GCSqGSIb3DQEBAQUAA4ICDwAwggIKAoICAQDF4ao/fe14pyUP
bb10k2EfhCRtk2uslbExbfIac+6xkUSJF6znyiUbRDEOdj5SbgsNkax531mlgPwL
7EhDdtu7gHfdcG3OfvOrOibmJ2uFNjesMHuF1vnprwlwwfggtiYBJjvtx7oWc3ja
VV9pMhA+uHRJAQ9RXSFeRrTeZ6QH54Cn2u9BYcW29Ikf2DGJIyYfI+98hC+Js3GJ
rBQ+nDrFh+hAzGtOE3Pq7dMR948m/4/R8iMBPHmPRo3VpgRQMNM1LI/Mwhc6Hq7P
lWlbfrpkvtq1dhQFtyabYMe+H91XNxzgPLxt0dqj8Me3ULELllYbTHiCoMvm2KPb
GI4rSRlE9OXIL1R3+dpFMWrJBaVticyegUfZCMSahNCwahlB0FnfYMG74N8DmsHM
3l5mwUnd8Ih1thJLWQDOrKz2Anf1SszYcc+kirNqWG8HFPvMjX1pBspaR5ITurCz
REARGk9gnJGsoiUeC2/eUKwfruRUqMpOxTPCbz1JTMrqmhq12ikdoGgOQnjSWluJ
30IEPvvP/jFfFNLeRawyWwh+AQkK5MG+9VwJhkKr3jpF/Ey74c4reD+pLM55hcqg
DFhX17u8FviKaK1Ni4waU8YGUrDkd38Ip5vmWpNfvpK6cETForx1zlm7qq87ILnq
sP3dD/R/+roCaikKSK4tZWUEM8nziQIDAQABo38wfTAfBgNVHSMEGDAWgBSrYb/l
o/wCU2OCR0YZRp4myWTyVDAJBgNVHRMEAjAAMAsGA1UdDwQEAwIE8DAQBgNVHREE
CTAHggVtbW9zdDAdBgNVHQ4EFgQUUVpqQFMEoNHJ2Rb6WtZZ1HX31VAwEQYJYIZI
AYb4QgEBBAQDAgTwMA0GCSqGSIb3DQEBCwUAA4IBAQCoc+mQePzKYEgTeLsOICYh
XBTqc1fHcC/T9pVxE+o385V3UsR278KUxcXxe47THe3wPclR+qRRAYGWXFXLBJtB
R5Xg9bvfvCY3XO6Q1sVrRLkSG7XPzxZ9ftouy5eNP3GKCpjZBu6nb8JxKiWr5DK+
F/DMA1LBCHlC6mYRBIXENI2hZ6MgV4Lk4F+CeAyERCekep88QvMu0sIKa6Z9M3ai
sB3+qKtPatA0ULLaBJKvbJ55yhF3wjDu5JV7WP52K5gbFroBOdKig7IGBuxAZ3Jf
Dy9kEBaq8qqKfNLdd5Cj5pRrriEy2dxeqz8H+ZqkBWjt2VPyxNIYIwwiph65ZlER
-----END CERTIFICATE-----
